target datalayout = "e-m:e-p270:32:32-p271:32:32-p272:64:64-i64:64-i128:128-f80:128-n8:16:32:64-S128"
target triple = "x86_64-unknown-linux-gnu"

%struct.stbi_io_callbacks = type { ptr, ptr, ptr }
%struct.stbi__context = type { i32, i32, i32, i32, %struct.stbi_io_callbacks, ptr, i32, i32, [128 x i8], i32, ptr, ptr, ptr, ptr }
%struct.stbi__png = type { ptr, ptr, ptr, ptr, i32 }

@_ZL22stbi__g_failure_reason = internal thread_local global ptr null, align 8
@_ZL21stbi__stdio_callbacks = internal global %struct.stbi_io_callbacks { ptr @_ZL16stbi__stdio_readPvPci, ptr @_ZL16stbi__stdio_skipPvi, ptr @_ZL15stbi__stdio_eofPv }, align 8
@.str.5 = private unnamed_addr constant [19 x i8] c"unknown image type\00", align 1

; Function Attrs: mustprogress nounwind uwtable
define internal void @_ZL12stbi__rewindP13stbi__context(ptr noundef %s) #0 {
entry:
  %s.addr = alloca ptr, align 8
  store ptr %s, ptr %s.addr, align 8
  %0 = load ptr, ptr %s.addr, align 8
  %img_buffer_original = getelementptr inbounds %struct.stbi__context, ptr %0, i32 0, i32 12
  %1 = load ptr, ptr %img_buffer_original, align 8
  %2 = load ptr, ptr %s.addr, align 8
  %img_buffer = getelementptr inbounds %struct.stbi__context, ptr %2, i32 0, i32 10
  store ptr %1, ptr %img_buffer, align 8
  %3 = load ptr, ptr %s.addr, align 8
  %img_buffer_original_end = getelementptr inbounds %struct.stbi__context, ptr %3, i32 0, i32 13
  %4 = load ptr, ptr %img_buffer_original_end, align 8
  %5 = load ptr, ptr %s.addr, align 8
  %img_buffer_end = getelementptr inbounds %struct.stbi__context, ptr %5, i32 0, i32 11
  store ptr %4, ptr %img_buffer_end, align 8
  ret void
}

; Function Attrs: mustprogress uwtable
define internal noundef i32 @_ZL18stbi__png_info_rawP9stbi__pngPiS1_S1_(ptr noundef %p, ptr noundef %x, ptr noundef %y, ptr noundef %comp) #5 {
entry:
  %retval = alloca i32, align 4
  %p.addr = alloca ptr, align 8
  %x.addr = alloca ptr, align 8
  %y.addr = alloca ptr, align 8
  %comp.addr = alloca ptr, align 8
  store ptr %p, ptr %p.addr, align 8
  store ptr %x, ptr %x.addr, align 8
  store ptr %y, ptr %y.addr, align 8
  store ptr %comp, ptr %comp.addr, align 8
  %0 = load ptr, ptr %p.addr, align 8
  %call = call noundef i32 @_ZL20stbi__parse_png_fileP9stbi__pngii(ptr noundef %0, i32 noundef 2, i32 noundef 0)
  %tobool = icmp ne i32 %call, 0
  br i1 %tobool, label %if.end, label %if.then

if.then:                                          ; preds = %entry
  %1 = load ptr, ptr %p.addr, align 8
  %s = getelementptr inbounds %struct.stbi__png, ptr %1, i32 0, i32 0
  %2 = load ptr, ptr %s, align 8
  call void @_ZL12stbi__rewindP13stbi__context(ptr noundef %2)
  store i32 0, ptr %retval, align 4
  br label %return

if.end:                                           ; preds = %entry
  %3 = load ptr, ptr %x.addr, align 8
  %tobool1 = icmp ne ptr %3, null
  br i1 %tobool1, label %if.then2, label %if.end4

if.then2:                                         ; preds = %if.end
  %4 = load ptr, ptr %p.addr, align 8
  %s3 = getelementptr inbounds %struct.stbi__png, ptr %4, i32 0, i32 0
  %5 = load ptr, ptr %s3, align 8
  %img_x = getelementptr inbounds %struct.stbi__context, ptr %5, i32 0, i32 0
  %6 = load i32, ptr %img_x, align 8
  %7 = load ptr, ptr %x.addr, align 8
  store i32 %6, ptr %7, align 4
  br label %if.end4

if.end4:                                          ; preds = %if.then2, %if.end
  %8 = load ptr, ptr %y.addr, align 8
  %tobool5 = icmp ne ptr %8, null
  br i1 %tobool5, label %if.then6, label %if.end8

if.then6:                                         ; preds = %if.end4
  %9 = load ptr, ptr %p.addr, align 8
  %s7 = getelementptr inbounds %struct.stbi__png, ptr %9, i32 0, i32 0
  %10 = load ptr, ptr %s7, align 8
  %img_y = getelementptr inbounds %struct.stbi__context, ptr %10, i32 0, i32 1
  %11 = load i32, ptr %img_y, align 4
  %12 = load ptr, ptr %y.addr, align 8
  store i32 %11, ptr %12, align 4
  br label %if.end8

if.end8:                                          ; preds = %if.then6, %if.end4
  %13 = load ptr, ptr %comp.addr, align 8
  %tobool9 = icmp ne ptr %13, null
  br i1 %tobool9, label %if.then10, label %if.end12

if.then10:                                        ; preds = %if.end8
  %14 = load ptr, ptr %p.addr, align 8
  %s11 = getelementptr inbounds %struct.stbi__png, ptr %14, i32 0, i32 0
  %15 = load ptr, ptr %s11, align 8
  %img_n = getelementptr inbounds %struct.stbi__context, ptr %15, i32 0, i32 2
  %16 = load i32, ptr %img_n, align 8
  %17 = load ptr, ptr %comp.addr, align 8
  store i32 %16, ptr %17, align 4
  br label %if.end12

if.end12:                                         ; preds = %if.then10, %if.end8
  store i32 1, ptr %retval, align 4
  br label %return

return:                                           ; preds = %if.end12, %if.then
  %18 = load i32, ptr %retval, align 4
  ret i32 %18
}

; Function Attrs: mustprogress uwtable
define internal void @_ZL19stbi__refill_bufferP13stbi__context(ptr noundef %s) #5 {
entry:
  %s.addr = alloca ptr, align 8
  %n = alloca i32, align 4
  store ptr %s, ptr %s.addr, align 8
  %0 = load ptr, ptr %s.addr, align 8
  %io = getelementptr inbounds %struct.stbi__context, ptr %0, i32 0, i32 4
  %read = getelementptr inbounds %struct.stbi_io_callbacks, ptr %io, i32 0, i32 0
  %1 = load ptr, ptr %read, align 8
  %2 = load ptr, ptr %s.addr, align 8
  %io_user_data = getelementptr inbounds %struct.stbi__context, ptr %2, i32 0, i32 5
  %3 = load ptr, ptr %io_user_data, align 8
  %4 = load ptr, ptr %s.addr, align 8
  %buffer_start = getelementptr inbounds %struct.stbi__context, ptr %4, i32 0, i32 8
  %arraydecay = getelementptr inbounds [128 x i8], ptr %buffer_start, i64 0, i64 0
  %5 = load ptr, ptr %s.addr, align 8
  %buflen = getelementptr inbounds %struct.stbi__context, ptr %5, i32 0, i32 7
  %6 = load i32, ptr %buflen, align 4
  %call = call noundef i32 %1(ptr noundef %3, ptr noundef %arraydecay, i32 noundef %6)
  store i32 %call, ptr %n, align 4
  %7 = load ptr, ptr %s.addr, align 8
  %img_buffer = getelementptr inbounds %struct.stbi__context, ptr %7, i32 0, i32 10
  %8 = load ptr, ptr %img_buffer, align 8
  %9 = load ptr, ptr %s.addr, align 8
  %img_buffer_original = getelementptr inbounds %struct.stbi__context, ptr %9, i32 0, i32 12
  %10 = load ptr, ptr %img_buffer_original, align 8
  %sub.ptr.lhs.cast = ptrtoint ptr %8 to i64
  %sub.ptr.rhs.cast = ptrtoint ptr %10 to i64
  %sub.ptr.sub = sub i64 %sub.ptr.lhs.cast, %sub.ptr.rhs.cast
  %conv = trunc i64 %sub.ptr.sub to i32
  %11 = load ptr, ptr %s.addr, align 8
  %callback_already_read = getelementptr inbounds %struct.stbi__context, ptr %11, i32 0, i32 9
  %12 = load i32, ptr %callback_already_read, align 8
  %add = add nsw i32 %12, %conv
  store i32 %add, ptr %callback_already_read, align 8
  %13 = load i32, ptr %n, align 4
  %cmp = icmp eq i32 %13, 0
  br i1 %cmp, label %if.then, label %if.else

if.then:                                          ; preds = %entry
  %14 = load ptr, ptr %s.addr, align 8
  %read_from_callbacks = getelementptr inbounds %struct.stbi__context, ptr %14, i32 0, i32 6
  store i32 0, ptr %read_from_callbacks, align 8
  %15 = load ptr, ptr %s.addr, align 8
  %buffer_start1 = getelementptr inbounds %struct.stbi__context, ptr %15, i32 0, i32 8
  %arraydecay2 = getelementptr inbounds [128 x i8], ptr %buffer_start1, i64 0, i64 0
  %16 = load ptr, ptr %s.addr, align 8
  %img_buffer3 = getelementptr inbounds %struct.stbi__context, ptr %16, i32 0, i32 10
  store ptr %arraydecay2, ptr %img_buffer3, align 8
  %17 = load ptr, ptr %s.addr, align 8
  %buffer_start4 = getelementptr inbounds %struct.stbi__context, ptr %17, i32 0, i32 8
  %arraydecay5 = getelementptr inbounds [128 x i8], ptr %buffer_start4, i64 0, i64 0
  %add.ptr = getelementptr inbounds i8, ptr %arraydecay5, i64 1
  %18 = load ptr, ptr %s.addr, align 8
  %img_buffer_end = getelementptr inbounds %struct.stbi__context, ptr %18, i32 0, i32 11
  store ptr %add.ptr, ptr %img_buffer_end, align 8
  %19 = load ptr, ptr %s.addr, align 8
  %img_buffer6 = getelementptr inbounds %struct.stbi__context, ptr %19, i32 0, i32 10
  %20 = load ptr, ptr %img_buffer6, align 8
  store i8 0, ptr %20, align 1
  br label %if.end

if.else:                                          ; preds = %entry
  %21 = load ptr, ptr %s.addr, align 8
  %buffer_start7 = getelementptr inbounds %struct.stbi__context, ptr %21, i32 0, i32 8
  %arraydecay8 = getelementptr inbounds [128 x i8], ptr %buffer_start7, i64 0, i64 0
  %22 = load ptr, ptr %s.addr, align 8
  %img_buffer9 = getelementptr inbounds %struct.stbi__context, ptr %22, i32 0, i32 10
  store ptr %arraydecay8, ptr %img_buffer9, align 8
  %23 = load ptr, ptr %s.addr, align 8
  %buffer_start10 = getelementptr inbounds %struct.stbi__context, ptr %23, i32 0, i32 8
  %arraydecay11 = getelementptr inbounds [128 x i8], ptr %buffer_start10, i64 0, i64 0
  %24 = load i32, ptr %n, align 4
  %idx.ext = sext i32 %24 to i64
  %add.ptr12 = getelementptr inbounds i8, ptr %arraydecay11, i64 %idx.ext
  %25 = load ptr, ptr %s.addr, align 8
  %img_buffer_end13 = getelementptr inbounds %struct.stbi__context, ptr %25, i32 0, i32 11
  store ptr %add.ptr12, ptr %img_buffer_end13, align 8
  br label %if.end

if.end:                                           ; preds = %if.else, %if.then
  ret void
}

; Function Attrs: mustprogress nounwind uwtable
define internal noundef i32 @_ZL9stbi__errPKc(ptr noundef %str) #0 {
entry:
  %str.addr = alloca ptr, align 8
  store ptr %str, ptr %str.addr, align 8
  %0 = load ptr, ptr %str.addr, align 8
  %1 = call align 8 ptr @llvm.threadlocal.address.p0(ptr align 8 @_ZL22stbi__g_failure_reason)
  store ptr %0, ptr %1, align 8
  ret i32 0
}

; Function Attrs: mustprogress uwtable
define internal noundef i32 @_ZL14stbi__png_infoP13stbi__contextPiS1_S1_(ptr noundef %s, ptr noundef %x, ptr noundef %y, ptr noundef %comp) #5 {
entry:
  %s.addr = alloca ptr, align 8
  %x.addr = alloca ptr, align 8
  %y.addr = alloca ptr, align 8
  %comp.addr = alloca ptr, align 8
  %p = alloca %struct.stbi__png, align 8
  store ptr %s, ptr %s.addr, align 8
  store ptr %x, ptr %x.addr, align 8
  store ptr %y, ptr %y.addr, align 8
  store ptr %comp, ptr %comp.addr, align 8
  %0 = load ptr, ptr %s.addr, align 8
  %s1 = getelementptr inbounds %struct.stbi__png, ptr %p, i32 0, i32 0
  store ptr %0, ptr %s1, align 8
  %1 = load ptr, ptr %x.addr, align 8
  %2 = load ptr, ptr %y.addr, align 8
  %3 = load ptr, ptr %comp.addr, align 8
  %call = call noundef i32 @_ZL18stbi__png_info_rawP9stbi__pngPiS1_S1_(ptr noundef %p, ptr noundef %1, ptr noundef %2, ptr noundef %3)
  ret i32 %call
}

; Function Attrs: mustprogress uwtable
define internal void @_ZL21stbi__start_callbacksP13stbi__contextP17stbi_io_callbacksPv(ptr noundef %s, ptr noundef %c, ptr noundef %user) #5 {
entry:
  %s.addr = alloca ptr, align 8
  %c.addr = alloca ptr, align 8
  %user.addr = alloca ptr, align 8
  store ptr %s, ptr %s.addr, align 8
  store ptr %c, ptr %c.addr, align 8
  store ptr %user, ptr %user.addr, align 8
  %0 = load ptr, ptr %c.addr, align 8
  %1 = load ptr, ptr %s.addr, align 8
  %io = getelementptr inbounds %struct.stbi__context, ptr %1, i32 0, i32 4
  call void @llvm.memcpy.p0.p0.i64(ptr align 8 %io, ptr align 8 %0, i64 24, i1 false)
  %2 = load ptr, ptr %user.addr, align 8
  %3 = load ptr, ptr %s.addr, align 8
  %io_user_data = getelementptr inbounds %struct.stbi__context, ptr %3, i32 0, i32 5
  store ptr %2, ptr %io_user_data, align 8
  %4 = load ptr, ptr %s.addr, align 8
  %buflen = getelementptr inbounds %struct.stbi__context, ptr %4, i32 0, i32 7
  store i32 128, ptr %buflen, align 4
  %5 = load ptr, ptr %s.addr, align 8
  %read_from_callbacks = getelementptr inbounds %struct.stbi__context, ptr %5, i32 0, i32 6
  store i32 1, ptr %read_from_callbacks, align 8
  %6 = load ptr, ptr %s.addr, align 8
  %callback_already_read = getelementptr inbounds %struct.stbi__context, ptr %6, i32 0, i32 9
  store i32 0, ptr %callback_already_read, align 8
  %7 = load ptr, ptr %s.addr, align 8
  %buffer_start = getelementptr inbounds %struct.stbi__context, ptr %7, i32 0, i32 8
  %arraydecay = getelementptr inbounds [128 x i8], ptr %buffer_start, i64 0, i64 0
  %8 = load ptr, ptr %s.addr, align 8
  %img_buffer_original = getelementptr inbounds %struct.stbi__context, ptr %8, i32 0, i32 12
  store ptr %arraydecay, ptr %img_buffer_original, align 8
  %9 = load ptr, ptr %s.addr, align 8
  %img_buffer = getelementptr inbounds %struct.stbi__context, ptr %9, i32 0, i32 10
  store ptr %arraydecay, ptr %img_buffer, align 8
  %10 = load ptr, ptr %s.addr, align 8
  call void @_ZL19stbi__refill_bufferP13stbi__context(ptr noundef %10)
  %11 = load ptr, ptr %s.addr, align 8
  %img_buffer_end = getelementptr inbounds %struct.stbi__context, ptr %11, i32 0, i32 11
  %12 = load ptr, ptr %img_buffer_end, align 8
  %13 = load ptr, ptr %s.addr, align 8
  %img_buffer_original_end = getelementptr inbounds %struct.stbi__context, ptr %13, i32 0, i32 13
  store ptr %12, ptr %img_buffer_original_end, align 8
  ret void
}

; Function Attrs: mustprogress uwtable
define internal noundef i32 @_ZL15stbi__info_mainP13stbi__contextPiS1_S1_(ptr noundef %s, ptr noundef %x, ptr noundef %y, ptr noundef %comp) #5 {
entry:
  %retval = alloca i32, align 4
  %s.addr = alloca ptr, align 8
  %x.addr = alloca ptr, align 8
  %y.addr = alloca ptr, align 8
  %comp.addr = alloca ptr, align 8
  store ptr %s, ptr %s.addr, align 8
  store ptr %x, ptr %x.addr, align 8
  store ptr %y, ptr %y.addr, align 8
  store ptr %comp, ptr %comp.addr, align 8
  %0 = load ptr, ptr %s.addr, align 8
  %1 = load ptr, ptr %x.addr, align 8
  %2 = load ptr, ptr %y.addr, align 8
  %3 = load ptr, ptr %comp.addr, align 8
  %call = call noundef i32 @_ZL14stbi__png_infoP13stbi__contextPiS1_S1_(ptr noundef %0, ptr noundef %1, ptr noundef %2, ptr noundef %3)
  %tobool = icmp ne i32 %call, 0
  br i1 %tobool, label %if.then, label %if.end

if.then:                                          ; preds = %entry
  store i32 1, ptr %retval, align 4
  br label %return

if.end:                                           ; preds = %entry
  %call1 = call noundef i32 @_ZL9stbi__errPKc(ptr noundef @.str.5)
  store i32 %call1, ptr %retval, align 4
  br label %return

return:                                           ; preds = %if.end, %if.then
  %4 = load i32, ptr %retval, align 4
  ret i32 %4
}

; Function Attrs: mustprogress uwtable
define internal void @_ZL16stbi__start_fileP13stbi__contextP8_IO_FILE(ptr noundef %s, ptr noundef %f) #5 {
entry:
  %s.addr = alloca ptr, align 8
  %f.addr = alloca ptr, align 8
  store ptr %s, ptr %s.addr, align 8
  store ptr %f, ptr %f.addr, align 8
  %0 = load ptr, ptr %s.addr, align 8
  %1 = load ptr, ptr %f.addr, align 8
  call void @_ZL21stbi__start_callbacksP13stbi__contextP17stbi_io_callbacksPv(ptr noundef %0, ptr noundef @_ZL21stbi__stdio_callbacks, ptr noundef %1)
  ret void
}

; Function Attrs: mustprogress uwtable
define hidden i32 @assimp_stbi_info_from_file(ptr noundef %f, ptr noundef %x, ptr noundef %y, ptr noundef %comp) #5 {
entry:
  %f.addr = alloca ptr, align 8
  %x.addr = alloca ptr, align 8
  %y.addr = alloca ptr, align 8
  %comp.addr = alloca ptr, align 8
  %r = alloca i32, align 4
  %s = alloca %struct.stbi__context, align 8
  %pos = alloca i64, align 8
  store ptr %f, ptr %f.addr, align 8
  store ptr %x, ptr %x.addr, align 8
  store ptr %y, ptr %y.addr, align 8
  store ptr %comp, ptr %comp.addr, align 8
  %0 = load ptr, ptr %f.addr, align 8
  %call = call i64 @ftell(ptr noundef %0)
  store i64 %call, ptr %pos, align 8
  %1 = load ptr, ptr %f.addr, align 8
  call void @_ZL16stbi__start_fileP13stbi__contextP8_IO_FILE(ptr noundef %s, ptr noundef %1)
  %2 = load ptr, ptr %x.addr, align 8
  %3 = load ptr, ptr %y.addr, align 8
  %4 = load ptr, ptr %comp.addr, align 8
  %call1 = call noundef i32 @_ZL15stbi__info_mainP13stbi__contextPiS1_S1_(ptr noundef %s, ptr noundef %2, ptr noundef %3, ptr noundef %4)
  store i32 %call1, ptr %r, align 4
  %5 = load ptr, ptr %f.addr, align 8
  %6 = load i64, ptr %pos, align 8
  %call2 = call i32 @fseek(ptr noundef %5, i64 noundef %6, i32 noundef 0)
  %7 = load i32, ptr %r, align 4
  ret i32 %7
}