; Function Attrs: mustprogress uwtable
define hidden noundef i32 @assimp_stbi_info_from_file(ptr noundef %f, ptr noundef writeonly %x, ptr noundef writeonly %y, ptr noundef writeonly %comp) local_unnamed_addr #3 {
entry:
  %p.i.i = alloca %struct.stbi__png, align 8
  %s = alloca %struct.stbi__context, align 8
  %call = tail call i64 @ftell(ptr noundef %f)
  %io.i.i = getelementptr inbounds i8, ptr %s, i64 16
  call void @llvm.memcpy.p0.p0.i64(ptr noundef nonnull align 8 dereferenceable(24) %io.i.i, ptr noundef nonnull align 8 dereferenceable(24) @_ZL21stbi__stdio_callbacks, i64 24, i1 false)
  %io_user_data.i.i = getelementptr inbounds i8, ptr %s, i64 40
  store ptr %f, ptr %io_user_data.i.i, align 8
  %buflen.i.i = getelementptr inbounds i8, ptr %s, i64 52
  store i32 128, ptr %buflen.i.i, align 4
  %read_from_callbacks.i.i = getelementptr inbounds i8, ptr %s, i64 48
  store i32 1, ptr %read_from_callbacks.i.i, align 8
  %callback_already_read.i.i = getelementptr inbounds i8, ptr %s, i64 184
  store i32 0, ptr %callback_already_read.i.i, align 8
  %buffer_start.i.i = getelementptr inbounds i8, ptr %s, i64 56
  %img_buffer_original.i.i = getelementptr inbounds i8, ptr %s, i64 208
  store ptr %buffer_start.i.i, ptr %img_buffer_original.i.i, align 8
  %img_buffer.i.i = getelementptr inbounds i8, ptr %s, i64 192
  store ptr %buffer_start.i.i, ptr %img_buffer.i.i, align 8
  %0 = load ptr, ptr %io.i.i, align 8
  %call.i.i.i = call noundef i32 %0(ptr noundef %f, ptr noundef nonnull %buffer_start.i.i, i32 noundef 128)
  %1 = load ptr, ptr %img_buffer.i.i, align 8
  %2 = load ptr, ptr %img_buffer_original.i.i, align 8
  %sub.ptr.lhs.cast.i.i.i = ptrtoint ptr %1 to i64
  %sub.ptr.rhs.cast.i.i.i = ptrtoint ptr %2 to i64
  %sub.ptr.sub.i.i.i = sub i64 %sub.ptr.lhs.cast.i.i.i, %sub.ptr.rhs.cast.i.i.i
  %conv.i.i.i = trunc i64 %sub.ptr.sub.i.i.i to i32
  %3 = load i32, ptr %callback_already_read.i.i, align 8
  %add.i.i.i = add nsw i32 %3, %conv.i.i.i
  store i32 %add.i.i.i, ptr %callback_already_read.i.i, align 8
  %cmp.i.i.i = icmp eq i32 %call.i.i.i, 0
  br i1 %cmp.i.i.i, label %if.then.i.i.i, label %if.else.i.i.i

if.then.i.i.i:                                    ; preds = %entry
  store i32 0, ptr %read_from_callbacks.i.i, align 8
  %add.ptr.i.i.i = getelementptr inbounds i8, ptr %s, i64 57
  store i8 0, ptr %buffer_start.i.i, align 8
  br label %_ZL16stbi__start_fileP13stbi__contextP8_IO_FILE.exit

if.else.i.i.i:                                    ; preds = %entry
  %idx.ext.i.i.i = sext i32 %call.i.i.i to i64
  %add.ptr12.i.i.i = getelementptr inbounds i8, ptr %buffer_start.i.i, i64 %idx.ext.i.i.i
  br label %_ZL16stbi__start_fileP13stbi__contextP8_IO_FILE.exit

_ZL16stbi__start_fileP13stbi__contextP8_IO_FILE.exit: ; preds = %if.then.i.i.i, %if.else.i.i.i
  %add.ptr12.sink.i.i.i = phi ptr [ %add.ptr.i.i.i, %if.then.i.i.i ], [ %add.ptr12.i.i.i, %if.else.i.i.i ]
  store ptr %buffer_start.i.i, ptr %img_buffer.i.i, align 8
  %4 = getelementptr inbounds i8, ptr %s, i64 200
  store ptr %add.ptr12.sink.i.i.i, ptr %4, align 8
  %img_buffer_original_end.i.i = getelementptr inbounds i8, ptr %s, i64 216
  store ptr %add.ptr12.sink.i.i.i, ptr %img_buffer_original_end.i.i, align 8
  call void @llvm.lifetime.start.p0(i64 40, ptr nonnull %p.i.i)
  store ptr %s, ptr %p.i.i, align 8
  %call.i.i.i3 = call fastcc noundef i32 @_ZL20stbi__parse_png_fileP9stbi__pngii(ptr noundef nonnull %p.i.i, i32 noundef 2, i32 noundef 0), !range !34
  %tobool.not.i.i.i = icmp eq i32 %call.i.i.i3, 0
  br i1 %tobool.not.i.i.i, label %if.end.i, label %if.end.i.i.i

if.end.i.i.i:                                     ; preds = %_ZL16stbi__start_fileP13stbi__contextP8_IO_FILE.exit
  %tobool1.not.i.i.i = icmp eq ptr %x, null
  br i1 %tobool1.not.i.i.i, label %if.end4.i.i.i, label %if.then2.i.i.i

if.then2.i.i.i:                                   ; preds = %if.end.i.i.i
  %5 = load ptr, ptr %p.i.i, align 8
  %6 = load i32, ptr %5, align 8
  store i32 %6, ptr %x, align 4
  br label %if.end4.i.i.i

if.end4.i.i.i:                                    ; preds = %if.then2.i.i.i, %if.end.i.i.i
  %tobool5.not.i.i.i = icmp eq ptr %y, null
  br i1 %tobool5.not.i.i.i, label %if.end8.i.i.i, label %if.then6.i.i.i

if.then6.i.i.i:                                   ; preds = %if.end4.i.i.i
  %7 = load ptr, ptr %p.i.i, align 8
  %img_y.i.i.i = getelementptr inbounds i8, ptr %7, i64 4
  %8 = load i32, ptr %img_y.i.i.i, align 4
  store i32 %8, ptr %y, align 4
  br label %if.end8.i.i.i

if.end8.i.i.i:                                    ; preds = %if.then6.i.i.i, %if.end4.i.i.i
  %tobool9.not.i.i.i = icmp eq ptr %comp, null
  br i1 %tobool9.not.i.i.i, label %_ZL14stbi__png_infoP13stbi__contextPiS1_S1_.exit.thread.i, label %if.then10.i.i.i

if.then10.i.i.i:                                  ; preds = %if.end8.i.i.i
  %9 = load ptr, ptr %p.i.i, align 8
  %img_n.i.i.i = getelementptr inbounds i8, ptr %9, i64 8
  %10 = load i32, ptr %img_n.i.i.i, align 8
  store i32 %10, ptr %comp, align 4
  br label %_ZL14stbi__png_infoP13stbi__contextPiS1_S1_.exit.thread.i

_ZL14stbi__png_infoP13stbi__contextPiS1_S1_.exit.thread.i: ; preds = %if.then10.i.i.i, %if.end8.i.i.i
  call void @llvm.lifetime.end.p0(i64 40, ptr nonnull %p.i.i)
  br label %_ZL15stbi__info_mainP13stbi__contextPiS1_S1_.exit

if.end.i:                                         ; preds = %_ZL16stbi__start_fileP13stbi__contextP8_IO_FILE.exit
  %11 = load ptr, ptr %p.i.i, align 8
  %img_buffer_original.i.i.i.i = getelementptr inbounds i8, ptr %11, i64 208
  %img_buffer.i.i.i.i = getelementptr inbounds i8, ptr %11, i64 192
  %12 = load <2 x ptr>, ptr %img_buffer_original.i.i.i.i, align 8
  store <2 x ptr> %12, ptr %img_buffer.i.i.i.i, align 8
  call void @llvm.lifetime.end.p0(i64 40, ptr nonnull %p.i.i)
  %13 = call align 8 ptr @llvm.threadlocal.address.p0(ptr align 8 @_ZL22stbi__g_failure_reason)
  store ptr @.str.5, ptr %13, align 8
  br label %_ZL15stbi__info_mainP13stbi__contextPiS1_S1_.exit

_ZL15stbi__info_mainP13stbi__contextPiS1_S1_.exit: ; preds = %_ZL14stbi__png_infoP13stbi__contextPiS1_S1_.exit.thread.i, %if.end.i
  %retval.0.i = phi i32 [ 0, %if.end.i ], [ 1, %_ZL14stbi__png_infoP13stbi__contextPiS1_S1_.exit.thread.i ]
  %call2 = call i32 @fseek(ptr noundef %f, i64 noundef %call, i32 noundef 0)
  ret i32 %retval.0.i
}